target datalayout = "e-m:e-p270:32:32-p271:32:32-p272:64:64-i64:64-i128:128-f80:128-n8:16:32:64-S128"
target triple = "x86_64-pc-linux-gnu"

%struct.mq = type { ptr, i32, i32, ptr, ptr, i64, ptr, i64, ptr, i64, ptr, i8, ptr, ptr, [10 x %struct.mq_item] }
%struct.mq_item = type { i32, i64, i64 }
%struct.hs_scratch = type { i32, i8, i32, i32, i32, i32, i32, %struct.RoseContext, ptr, ptr, ptr, ptr, ptr, ptr, ptr, i64, %struct.catchup_pq, %struct.core_info, %struct.match_deduper, i32, i32, ptr, ptr, ptr, ptr, ptr, i64, i32, i32, i32, i32, i32, ptr, ptr, i8 }
%struct.RoseContext = type { i8, i64, i64, i64, i64, i64, i64, i64, i64, i64, i32, i32, ptr, i64, ptr, i64 }
%struct.catchup_pq = type { ptr, i32 }
%struct.core_info = type { ptr, ptr, ptr, ptr, ptr, ptr, ptr, ptr, i64, ptr, i64, i64, i8 }
%struct.match_deduper = type { [2 x ptr], [2 x ptr], [2 x ptr], i32, i32, i64, i8 }

; Function Attrs: alwaysinline nounwind uwtable
define internal signext i8 @can_stop_matching(ptr noundef %0) #2 {
  %2 = alloca ptr, align 8
  store ptr %0, ptr %2, align 8
  %3 = load ptr, ptr %2, align 8
  %4 = getelementptr inbounds nuw %struct.hs_scratch, ptr %3, i32 0, i32 17
  %5 = getelementptr inbounds nuw %struct.core_info, ptr %4, i32 0, i32 12
  %6 = load i8, ptr %5, align 8
  %7 = zext i8 %6 to i32
  %8 = and i32 %7, 11
  %9 = trunc i32 %8 to i8
  ret i8 %9
}

; Function Attrs: alwaysinline nounwind uwtable
define internal i64 @q_cur_loc(ptr noundef %0) #2 {
  %2 = alloca ptr, align 8
  store ptr %0, ptr %2, align 8
  %3 = load ptr, ptr %2, align 8
  %4 = getelementptr inbounds nuw %struct.mq, ptr %3, i32 0, i32 14
  %5 = load ptr, ptr %2, align 8
  %6 = getelementptr inbounds nuw %struct.mq, ptr %5, i32 0, i32 1
  %7 = load i32, ptr %6, align 8
  %8 = zext i32 %7 to i64
  %9 = getelementptr inbounds nuw [10 x %struct.mq_item], ptr %4, i64 0, i64 %8
  %10 = getelementptr inbounds nuw %struct.mq_item, ptr %9, i32 0, i32 1
  %11 = load i64, ptr %10, align 8
  ret i64 %11
}

; Function Attrs: nounwind uwtable
define hidden signext i8 @nfaExecTamarama_Q2(ptr noundef %0, ptr noundef %1, i64 noundef %2) #0 {
  %4 = alloca ptr, align 8
  %5 = alloca ptr, align 8
  %6 = alloca i64, align 8
  %7 = alloca %struct.mq, align 8
  %8 = alloca i8, align 1
  %9 = alloca i8, align 1
  %10 = alloca ptr, align 8
  store ptr %0, ptr %4, align 8
  store ptr %1, ptr %5, align 8
  store i64 %2, ptr %6, align 8
  br label %11

11:                                               ; preds = %3
  br label %12

12:                                               ; preds = %11
  call void @llvm.lifetime.start.p0(i64 344, ptr %7) #5
  call void @llvm.lifetime.start.p0(i64 1, ptr %8) #5
  store i8 0, ptr %8, align 1
  call void @llvm.lifetime.start.p0(i64 1, ptr %9) #5
  store i8 0, ptr %9, align 1
  call void @llvm.lifetime.start.p0(i64 8, ptr %10) #5
  %13 = load ptr, ptr %4, align 8
  %14 = getelementptr inbounds nuw i8, ptr %13, i64 64
  store ptr %14, ptr %10, align 8
  br label %15

15:                                               ; preds = %51, %12
  %16 = load ptr, ptr %5, align 8
  %17 = getelementptr inbounds nuw %struct.mq, ptr %16, i32 0, i32 1
  %18 = load i32, ptr %17, align 8
  %19 = load ptr, ptr %5, align 8
  %20 = getelementptr inbounds nuw %struct.mq, ptr %19, i32 0, i32 2
  %21 = load i32, ptr %20, align 4
  %22 = icmp ult i32 %18, %21
  br i1 %22, label %23, label %32

23:                                               ; preds = %15
  %24 = load ptr, ptr %5, align 8
  %25 = call i64 @q_cur_loc(ptr noundef %24)
  %26 = load i64, ptr %6, align 8
  %27 = icmp sle i64 %25, %26
  br i1 %27, label %28, label %32

28:                                               ; preds = %23
  %29 = load i8, ptr %8, align 1
  %30 = sext i8 %29 to i32
  %31 = icmp ne i32 %30, 2
  br label %32

32:                                               ; preds = %28, %23, %15
  %33 = phi i1 [ false, %23 ], [ false, %15 ], [ %31, %28 ]
  br i1 %33, label %34, label %52

34:                                               ; preds = %32
  %35 = load ptr, ptr %10, align 8
  %36 = load ptr, ptr %5, align 8
  call void @updateQueues(ptr noundef %35, ptr noundef %36, ptr noundef %7)
  %37 = getelementptr inbounds nuw %struct.mq, ptr %7, i32 0, i32 0
  %38 = load ptr, ptr %37, align 8
  %39 = load i64, ptr %6, align 8
  %40 = call signext i8 @nfaQueueExec2_raw(ptr noundef %38, ptr noundef %7, i64 noundef %39)
  store i8 %40, ptr %8, align 1
  %41 = getelementptr inbounds nuw %struct.mq, ptr %7, i32 0, i32 11
  %42 = load i8, ptr %41, align 8
  %43 = load ptr, ptr %5, align 8
  %44 = getelementptr inbounds nuw %struct.mq, ptr %43, i32 0, i32 11
  store i8 %42, ptr %44, align 8
  store i8 1, ptr %9, align 1
  %45 = load ptr, ptr %5, align 8
  %46 = getelementptr inbounds nuw %struct.mq, ptr %45, i32 0, i32 10
  %47 = load ptr, ptr %46, align 8
  %48 = call signext i8 @can_stop_matching(ptr noundef %47)
  %49 = icmp ne i8 %48, 0
  br i1 %49, label %50, label %51

50:                                               ; preds = %34
  br label %52

51:                                               ; preds = %34
  br label %15

52:                                               ; preds = %50, %32
  %53 = load i8, ptr %9, align 1
  %54 = icmp ne i8 %53, 0
  br i1 %54, label %55, label %58

55:                                               ; preds = %52
  %56 = load ptr, ptr %10, align 8
  %57 = load ptr, ptr %5, align 8
  call void @copyBack(ptr noundef %56, ptr noundef %57, ptr noundef %7)
  br label %58

58:                                               ; preds = %55, %52
  %59 = load i8, ptr %8, align 1
  call void @llvm.lifetime.end.p0(i64 8, ptr %10) #5
  call void @llvm.lifetime.end.p0(i64 1, ptr %9) #5
  call void @llvm.lifetime.end.p0(i64 1, ptr %8) #5
  call void @llvm.lifetime.end.p0(i64 344, ptr %7) #5
  ret i8 %59
}