; Function Attrs: nounwind uwtable
define hidden signext i8 @nfaExecTamarama_Q2(ptr noundef %0, ptr noundef captures(none) %1, i64 noundef %2) local_unnamed_addr #0 {
  %4 = alloca %struct.mq, align 8
  call void @llvm.lifetime.start.p0(i64 344, ptr nonnull %4) #7
  %5 = getelementptr inbounds nuw i8, ptr %0, i64 64
  %6 = getelementptr inbounds nuw i8, ptr %1, i64 8
  %7 = getelementptr inbounds nuw i8, ptr %1, i64 12
  %8 = load i32, ptr %6, align 8
  %9 = load i32, ptr %7, align 4
  %10 = icmp ult i32 %8, %9
  br i1 %10, label %.lr.ph, label %.critedge.thread33

.lr.ph:                                           ; preds = %3
  %11 = getelementptr i8, ptr %1, i64 112
  %12 = getelementptr inbounds nuw i8, ptr %4, i64 80
  %13 = getelementptr inbounds nuw i8, ptr %1, i64 80
  %14 = getelementptr inbounds nuw i8, ptr %1, i64 72
  %15 = zext i32 %8 to i64
  %.idx.i43 = mul nuw nsw i64 %15, 24
  %16 = getelementptr i8, ptr %11, i64 %.idx.i43
  %17 = load i64, ptr %16, align 8
  %.not46 = icmp sgt i64 %17, %2
  br i1 %.not46, label %.critedge, label %.lr.ph44

18:                                               ; preds = %.lr.ph44
  %19 = load i32, ptr %6, align 8
  %20 = load i32, ptr %7, align 4
  %21 = icmp ult i32 %19, %20
  br i1 %21, label %22, label %.critedge.thread

22:                                               ; preds = %18
  %23 = zext i32 %19 to i64
  %.idx.i = mul nuw nsw i64 %23, 24
  %24 = getelementptr i8, ptr %11, i64 %.idx.i
  %25 = load i64, ptr %24, align 8
  %26 = icmp sle i64 %25, %2
  %27 = icmp ne i8 %29, 2
  %or.cond = select i1 %26, i1 %27, i1 false
  br i1 %or.cond, label %.lr.ph44, label %.critedge

.lr.ph44:                                         ; preds = %.lr.ph, %22
  call fastcc void @updateQueues(ptr noundef nonnull %5, ptr noundef nonnull %1, ptr noundef %4)
  %28 = load ptr, ptr %4, align 8
  %29 = call signext i8 @nfaQueueExec2_raw(ptr noundef %28, ptr noundef nonnull %4, i64 noundef %2) #7
  %30 = load i8, ptr %12, align 8
  store i8 %30, ptr %13, align 8
  %31 = load ptr, ptr %14, align 8
  %32 = getelementptr inbounds nuw i8, ptr %31, i64 328
  %33 = load i8, ptr %32, align 8
  %34 = and i8 %33, 11
  %.not = icmp eq i8 %34, 0
  br i1 %.not, label %18, label %.critedge.thread

.critedge:                                        ; preds = %22, %.lr.ph
  %.028.lcssa = phi i8 [ 0, %.lr.ph ], [ %29, %22 ]
  br i1 %.not46, label %.critedge.thread33, label %.critedge.thread

.critedge.thread:                                 ; preds = %18, %.lr.ph44, %.critedge
  %.123 = phi i8 [ %.028.lcssa, %.critedge ], [ %29, %.lr.ph44 ], [ %29, %18 ]
  call fastcc void @copyBack(ptr noundef nonnull %5, ptr noundef nonnull %1, ptr noundef %4)
  br label %.critedge.thread33

.critedge.thread33:                               ; preds = %3, %.critedge.thread, %.critedge
  %.124 = phi i8 [ %.123, %.critedge.thread ], [ %.028.lcssa, %.critedge ], [ 0, %3 ]
  call void @llvm.lifetime.end.p0(i64 344, ptr nonnull %4) #7
  ret i8 %.124
}